target datalayout = "e-m:e-p270:32:32-p271:32:32-p272:64:64-i64:64-i128:128-f80:128-n8:16:32:64-S128"
target triple = "x86_64-pc-linux-gnu"

%class.MeshLabPluginLogger = type { ptr, ptr }

; Function Attrs: mustprogress uwtable
define void @_ZNK19MeshLabPluginLogger3logEPKc(ptr noundef nonnull align 8 dereferenceable(16) %0, ptr noundef %1) #5 align 2 {
  %3 = alloca ptr, align 8
  %4 = alloca ptr, align 8
  store ptr %0, ptr %3, align 8
  store ptr %1, ptr %4, align 8
  %5 = load ptr, ptr %3, align 8
  %6 = getelementptr inbounds %class.MeshLabPluginLogger, ptr %5, i32 0, i32 1
  %7 = load ptr, ptr %6, align 8
  %8 = icmp ne ptr %7, null
  br i1 %8, label %9, label %13

9:                                                ; preds = %2
  %10 = getelementptr inbounds %class.MeshLabPluginLogger, ptr %5, i32 0, i32 1
  %11 = load ptr, ptr %10, align 8
  %12 = load ptr, ptr %4, align 8
  call void @_ZN11GLLogStream3logEiPKc(ptr noundef nonnull align 8 dereferenceable(40) %11, i32 noundef 2, ptr noundef %12)
  br label %13

13:                                               ; preds = %9, %2
  ret void
}