; Function Attrs: mustprogress uwtable
define void @_ZNK19MeshLabPluginLogger3logEPKc(ptr nocapture noundef nonnull readonly align 8 dereferenceable(16) %0, ptr noundef %1) local_unnamed_addr #6 align 2 {
  %3 = getelementptr inbounds i8, ptr %0, i64 8
  %4 = load ptr, ptr %3, align 8
  %.not = icmp eq ptr %4, null
  br i1 %.not, label %6, label %5

5:                                                ; preds = %2
  tail call void @_ZN11GLLogStream3logEiPKc(ptr noundef nonnull align 8 dereferenceable(40) %4, i32 noundef 2, ptr noundef %1)
  br label %6

6:                                                ; preds = %5, %2
  ret void
}